target datalayout = "e-m:e-p270:32:32-p271:32:32-p272:64:64-i64:64-i128:128-f80:128-n8:16:32:64-S128"
target triple = "x86_64-pc-linux-gnu"

%struct.Qureg = type { i32, i32, i32, i64, i64, i32, i32, %struct.ComplexArray, %struct.ComplexArray, %struct.ComplexArray, ptr, ptr, ptr, ptr, ptr, ptr }
%struct.ComplexArray = type { ptr, ptr }
%struct.QASMLogger = type { ptr, i32, i32, i32 }

; Function Attrs: nounwind uwtable
define void @qasm_recordGate(ptr noundef byval(%struct.Qureg) align 8 %0, i32 noundef %1, i32 noundef %2) #0 {
  %4 = alloca i32, align 4
  %5 = alloca i32, align 4
  store i32 %1, ptr %4, align 4, !tbaa !25
  store i32 %2, ptr %5, align 4, !tbaa !25
  %6 = getelementptr inbounds nuw %struct.Qureg, ptr %0, i32 0, i32 15
  %7 = load ptr, ptr %6, align 8, !tbaa !10
  %8 = getelementptr inbounds nuw %struct.QASMLogger, ptr %7, i32 0, i32 3
  %9 = load i32, ptr %8, align 8, !tbaa !17
  %10 = icmp ne i32 %9, 0
  br i1 %10, label %12, label %11

11:                                               ; preds = %3
  br label %15

12:                                               ; preds = %3
  %13 = load i32, ptr %4, align 4, !tbaa !25
  %14 = load i32, ptr %5, align 4, !tbaa !25
  call void @addGateToQASM(ptr noundef byval(%struct.Qureg) align 8 %0, i32 noundef %13, ptr noundef null, i32 noundef 0, i32 noundef %14, ptr noundef null, i32 noundef 0)
  br label %15

15:                                               ; preds = %12, %11
  ret void
}